target datalayout = "e-m:e-p270:32:32-p271:32:32-p272:64:64-i64:64-i128:128-f80:128-n8:16:32:64-S128"
target triple = "x86_64-pc-linux-gnu"

%struct.SDL_TrayMenu = type { ptr, i32, ptr, ptr, ptr }
%struct.SDL_TrayEntry = type { ptr, ptr, i8, i32, ptr, ptr, ptr }

@gtk_menu_new = internal global ptr null, align 8
@.str.7 = private unnamed_addr constant [26 x i8] c"Parameter '%s' is invalid\00", align 1
@.str.9 = private unnamed_addr constant [6 x i8] c"entry\00", align 1
@.str.10 = private unnamed_addr constant [34 x i8] c"Tray entry submenu already exists\00", align 1
@.str.11 = private unnamed_addr constant [71 x i8] c"Cannot create submenu for entry not created with SDL_TRAYENTRY_SUBMENU\00", align 1
@gtk_menu_item_set_submenu = internal global ptr null, align 8

; Function Attrs: nounwind uwtable
define hidden ptr @SDL_CreateTraySubmenu_REAL(ptr noundef %0) #0 {
  %2 = alloca ptr, align 8
  %3 = alloca ptr, align 8
  store ptr %0, ptr %3, align 8
  %4 = load ptr, ptr %3, align 8
  %5 = icmp ne ptr %4, null
  br i1 %5, label %8, label %6

6:                                                ; preds = %1
  %7 = call zeroext i1 (ptr, ...) @SDL_SetError_REAL(ptr noundef @.str.7, ptr noundef @.str.9)
  store ptr null, ptr %2, align 8
  br label %68

8:                                                ; preds = %1
  %9 = load ptr, ptr %3, align 8
  %10 = getelementptr inbounds nuw %struct.SDL_TrayEntry, ptr %9, i32 0, i32 6
  %11 = load ptr, ptr %10, align 8
  %12 = icmp ne ptr %11, null
  br i1 %12, label %13, label %15

13:                                               ; preds = %8
  %14 = call zeroext i1 (ptr, ...) @SDL_SetError_REAL(ptr noundef @.str.10)
  store ptr null, ptr %2, align 8
  br label %68

15:                                               ; preds = %8
  %16 = load ptr, ptr %3, align 8
  %17 = getelementptr inbounds nuw %struct.SDL_TrayEntry, ptr %16, i32 0, i32 3
  %18 = load i32, ptr %17, align 4
  %19 = and i32 %18, 4
  %20 = icmp ne i32 %19, 0
  br i1 %20, label %23, label %21

21:                                               ; preds = %15
  %22 = call zeroext i1 (ptr, ...) @SDL_SetError_REAL(ptr noundef @.str.11)
  store ptr null, ptr %2, align 8
  br label %68

23:                                               ; preds = %15
  %24 = call noalias ptr @SDL_calloc_REAL(i64 noundef 1, i64 noundef 40) #8
  %25 = load ptr, ptr %3, align 8
  %26 = getelementptr inbounds nuw %struct.SDL_TrayEntry, ptr %25, i32 0, i32 6
  store ptr %24, ptr %26, align 8
  %27 = load ptr, ptr %3, align 8
  %28 = getelementptr inbounds nuw %struct.SDL_TrayEntry, ptr %27, i32 0, i32 6
  %29 = load ptr, ptr %28, align 8
  %30 = icmp ne ptr %29, null
  br i1 %30, label %32, label %31

31:                                               ; preds = %23
  store ptr null, ptr %2, align 8
  br label %68

32:                                               ; preds = %23
  %33 = load ptr, ptr @gtk_menu_new, align 8
  %34 = call ptr %33()
  %35 = load ptr, ptr %3, align 8
  %36 = getelementptr inbounds nuw %struct.SDL_TrayEntry, ptr %35, i32 0, i32 6
  %37 = load ptr, ptr %36, align 8
  %38 = getelementptr inbounds nuw %struct.SDL_TrayMenu, ptr %37, i32 0, i32 0
  store ptr %34, ptr %38, align 8
  %39 = load ptr, ptr %3, align 8
  %40 = getelementptr inbounds nuw %struct.SDL_TrayEntry, ptr %39, i32 0, i32 6
  %41 = load ptr, ptr %40, align 8
  %42 = getelementptr inbounds nuw %struct.SDL_TrayMenu, ptr %41, i32 0, i32 3
  store ptr null, ptr %42, align 8
  %43 = load ptr, ptr %3, align 8
  %44 = load ptr, ptr %3, align 8
  %45 = getelementptr inbounds nuw %struct.SDL_TrayEntry, ptr %44, i32 0, i32 6
  %46 = load ptr, ptr %45, align 8
  %47 = getelementptr inbounds nuw %struct.SDL_TrayMenu, ptr %46, i32 0, i32 4
  store ptr %43, ptr %47, align 8
  %48 = load ptr, ptr %3, align 8
  %49 = getelementptr inbounds nuw %struct.SDL_TrayEntry, ptr %48, i32 0, i32 6
  %50 = load ptr, ptr %49, align 8
  %51 = getelementptr inbounds nuw %struct.SDL_TrayMenu, ptr %50, i32 0, i32 1
  store i32 0, ptr %51, align 8
  %52 = load ptr, ptr %3, align 8
  %53 = getelementptr inbounds nuw %struct.SDL_TrayEntry, ptr %52, i32 0, i32 6
  %54 = load ptr, ptr %53, align 8
  %55 = getelementptr inbounds nuw %struct.SDL_TrayMenu, ptr %54, i32 0, i32 2
  store ptr null, ptr %55, align 8
  %56 = load ptr, ptr @gtk_menu_item_set_submenu, align 8
  %57 = load ptr, ptr %3, align 8
  %58 = getelementptr inbounds nuw %struct.SDL_TrayEntry, ptr %57, i32 0, i32 1
  %59 = load ptr, ptr %58, align 8
  %60 = load ptr, ptr %3, align 8
  %61 = getelementptr inbounds nuw %struct.SDL_TrayEntry, ptr %60, i32 0, i32 6
  %62 = load ptr, ptr %61, align 8
  %63 = getelementptr inbounds nuw %struct.SDL_TrayMenu, ptr %62, i32 0, i32 0
  %64 = load ptr, ptr %63, align 8
  call void %56(ptr noundef %59, ptr noundef %64)
  %65 = load ptr, ptr %3, align 8
  %66 = getelementptr inbounds nuw %struct.SDL_TrayEntry, ptr %65, i32 0, i32 6
  %67 = load ptr, ptr %66, align 8
  store ptr %67, ptr %2, align 8
  br label %68

68:                                               ; preds = %32, %31, %21, %13, %6
  %69 = load ptr, ptr %2, align 8
  ret ptr %69
}