; Function Attrs: nounwind uwtable
define hidden ptr @SDL_CreateTraySubmenu_REAL(ptr noundef %0) local_unnamed_addr #0 {
  %.not = icmp eq ptr %0, null
  br i1 %.not, label %2, label %4

2:                                                ; preds = %1
  %3 = tail call zeroext i1 (ptr, ...) @SDL_SetError_REAL(ptr noundef nonnull @.str.7, ptr noundef nonnull @.str.9) #10
  br label %35

4:                                                ; preds = %1
  %5 = getelementptr inbounds nuw i8, ptr %0, i64 40
  %6 = load ptr, ptr %5, align 8
  %.not16 = icmp eq ptr %6, null
  br i1 %.not16, label %9, label %7

7:                                                ; preds = %4
  %8 = tail call zeroext i1 (ptr, ...) @SDL_SetError_REAL(ptr noundef nonnull @.str.10) #10
  br label %35

9:                                                ; preds = %4
  %10 = getelementptr inbounds nuw i8, ptr %0, i64 20
  %11 = load i32, ptr %10, align 4
  %12 = and i32 %11, 4
  %.not17 = icmp eq i32 %12, 0
  br i1 %.not17, label %13, label %15

13:                                               ; preds = %9
  %14 = tail call zeroext i1 (ptr, ...) @SDL_SetError_REAL(ptr noundef nonnull @.str.11) #10
  br label %35

15:                                               ; preds = %9
  %16 = tail call noalias dereferenceable_or_null(40) ptr @SDL_calloc_REAL(i64 noundef 1, i64 noundef 40) #11
  store ptr %16, ptr %5, align 8
  %.not18 = icmp eq ptr %16, null
  br i1 %.not18, label %35, label %17

17:                                               ; preds = %15
  %18 = load ptr, ptr @gtk_menu_new, align 8
  %19 = tail call ptr %18() #10
  %20 = load ptr, ptr %5, align 8
  store ptr %19, ptr %20, align 8
  %21 = load ptr, ptr %5, align 8
  %22 = getelementptr inbounds nuw i8, ptr %21, i64 24
  store ptr null, ptr %22, align 8
  %23 = load ptr, ptr %5, align 8
  %24 = getelementptr inbounds nuw i8, ptr %23, i64 32
  store ptr %0, ptr %24, align 8
  %25 = load ptr, ptr %5, align 8
  %26 = getelementptr inbounds nuw i8, ptr %25, i64 8
  store i32 0, ptr %26, align 8
  %27 = load ptr, ptr %5, align 8
  %28 = getelementptr inbounds nuw i8, ptr %27, i64 16
  store ptr null, ptr %28, align 8
  %29 = load ptr, ptr @gtk_menu_item_set_submenu, align 8
  %30 = getelementptr inbounds nuw i8, ptr %0, i64 8
  %31 = load ptr, ptr %30, align 8
  %32 = load ptr, ptr %5, align 8
  %33 = load ptr, ptr %32, align 8
  tail call void %29(ptr noundef %31, ptr noundef %33) #10
  %34 = load ptr, ptr %5, align 8
  br label %35

35:                                               ; preds = %15, %17, %13, %7, %2
  %.0 = phi ptr [ null, %7 ], [ %34, %17 ], [ null, %13 ], [ null, %2 ], [ null, %15 ]
  ret ptr %.0
}